Certificate:
    Data:
        Version: 3 (0x2)
        Serial Number: 15312232537275314384 (0xd47ffa5d6e7930d0)
    Signature Algorithm: sha1WithRSAEncryption
        Issuer: C=ch, ST=ch, L=ch, O=ch, OU=ch, CN=tang/emailAddress=e@qq.com
        Validity
            Not Before: Mar 20 03:03:28 2014 GMT
            Not After : Mar 20 03:03:28 2015 GMT
        Subject: C=ch, ST=ch, L=ch, O=ch, OU=ch, CN=tang/emailAddress=e@qq.com
        Subject Public Key Info:
            Public Key Algorithm: rsaEncryption
                Public-Key: (1024 bit)
                Modulus:
                    00:c5:ee:1d:fd:3a:95:79:76:f4:26:d0:ae:ad:92:
                    68:e1:dc:37:28:92:42:ee:bd:7a:77:84:fe:5b:14:
                    81:fe:08:6f:26:de:ed:be:c0:6f:e6:1f:e6:72:37:
                    e3:13:d7:c7:a3:39:a6:aa:48:54:8d:ea:67:99:7f:
                    2b:3f:20:c9:9e:3b:0f:7c:f9:3b:c0:7c:17:42:5b:
                    f9:ee:63:47:a2:23:92:1b:a5:cd:45:78:45:92:44:
                    89:1b:08:5f:54:5a:5f:03:4f:b6:cd:71:dd:1b:b4:
                    69:74:3e:43:65:9a:40:51:20:d7:e2:2b:bd:9a:75:
                    f9:5a:f2:48:8e:1e:8a:bc:6f
                Exponent: 65537 (0x10001)
        X509v3 extensions:
            X509v3 Basic Constraints: 
                CA:FALSE
            Netscape Comment: 
                OpenSSL Generated Certificate
            X509v3 Subject Key Identifier: 
                68:AB:89:01:88:C8:4D:DE:34:32:91:E4:F4:AE:1C:5F:A5:CB:93:75
            X509v3 Authority Key Identifier: 
                keyid:24:9D:42:EB:D6:DA:9A:40:4A:F0:13:B2:BE:F6:79:8D:CA:28:DE:A2

    Signature Algorithm: sha1WithRSAEncryption
         57:9a:9e:8e:49:48:bd:5b:da:ee:bb:a1:13:d0:1f:44:93:29:
         c1:1f:4d:7e:8f:2a:df:85:92:40:06:b0:17:80:ca:86:6e:28:
         f6:69:c2:6e:0e:09:10:29:68:21:b7:b5:66:ca:9d:d7:08:29:
         50:0b:52:f8:ea:9b:16:bb:de:c4:83:51:b7:70:9d:ab:99:e4:
         a5:51:25:77:f7:fc:5c:d6:f5:d0:97:e9:7e:2e:bc:19:3e:5b:
         86:67:35:b9:93:26:f3:ae:0c:b0:14:ee:54:ce:70:86:c9:91:
         10:90:04:c8:95:ac:e5:3b:cd:a2:58:14:22:44:95:7e:64:56:
         d1:fd:92:99:34:f4:e4:de:7d:21:86:52:a4:0a:76:0b:12:da:
         2d:1c:86:08:d9:ad:b4:de:a3:04:a9:f0:1a:b0:49:63:5a:88:
         00:de:be:79:14:b8:f4:b6:68:1e:b3:1a:94:44:d3:f0:4f:95:
         44:7a:0f:57:b3:ab:09:e4:8a:98:b8:e4:91:0d:3f:9e:47:cb:
         54:04:92:b1:44:7d:16:7a:d9:9f:84:7f:d0:47:27:97:0a:c9:
         6a:24:da:1d:b3:78:04:fa:a2:f1:4d:dd:df:81:d5:aa:3e:cf:
         b6:f4:6b:75:97:1b:f1:5c:1e:65:21:ea:98:b2:8c:90:ac:34:
         cd:13:60:9d
-----BEGIN CERTIFICATE-----
MIIDTDCCAjSgAwIBAgIJANR/+l1ueTDQMA0GCSqGSIb3DQEBBQUAMGkxCzAJBgNV
BAYTAmNoMQswCQYDVQQIDAJjaDELMAkGA1UEBwwCY2gxCzAJBgNVBAoMAmNoMQsw
CQYDVQQLDAJjaDENMAsGA1UEAwwEdGFuZzEXMBUGCSqGSIb3DQEJARYIZUBxcS5j
b20wHhcNMTQwMzIwMDMwMzI4WhcNMTUwMzIwMDMwMzI4WjBpMQswCQYDVQQGEwJj
aDELMAkGA1UECAwCY2gxCzAJBgNVBAcMAmNoMQswCQYDVQQKDAJjaDELMAkGA1UE
CwwCY2gxDTALBgNVBAMMBHRhbmcxFzAVBgkqhkiG9w0BCQEWCGVAcXEuY29tMIGf
MA0GCSqGSIb3DQEBAQUAA4GNADCBiQKBgQDF7h39OpV5dvQm0K6tkmjh3DcokkLu
vXp3hP5bFIH+CG8m3u2+wG/mH+ZyN+MT18ejOaaqSFSN6meZfys/IMmeOw98+TvA
fBdCW/nuY0eiI5Ibpc1FeEWSRIkbCF9UWl8DT7bNcd0btGl0PkNlmkBRINfiK72a
dfla8kiOHoq8bwIDAQABo3sweTAJBgNVHRMEAjAAMCwGCWCGSAGG+EIBDQQfFh1P
cGVuU1NMIEdlbmVyYXRlZCBDZXJ0aWZpY2F0ZTAdBgNVHQ4EFgQUaKuJAYjITd40
MpHk9K4cX6XLk3UwHwYDVR0jBBgwFoAUJJ1C69bamkBK8BOyvvZ5jcoo3qIwDQYJ
KoZIhvcNAQEFBQADggEBAFeano5JSL1b2u67oRPQH0STKcEfTX6PKt+FkkAGsBeA
yoZuKPZpwm4OCRApaCG3tWbKndcIKVALUvjqmxa73sSDUbdwnauZ5KVRJXf3/FzW
9dCX6X4uvBk+W4ZnNbmTJvOuDLAU7lTOcIbJkRCQBMiVrOU7zaJYFCJElX5kVtH9
kpk09OTefSGGUqQKdgsS2i0chgjZrbTeowSp8BqwSWNaiADevnkUuPS2aB6zGpRE
0/BPlUR6D1ezqwnkipi45JENP55Hy1QEkrFEfRZ62Z+Ef9BHJ5cKyWok2h2zeAT6
ovFN3d+B1ao+z7b0a3WXG/FcHmUh6piyjJCsNM0TYJ0=
-----END CERTIFICATE-----
