Certificate:
    Data:
        Version: 3 (0x2)
        Serial Number: 15312232537275314382 (0xd47ffa5d6e7930ce)
    Signature Algorithm: sha1WithRSAEncryption
        Issuer: C=ch, ST=ch, L=ch, O=ch, OU=ch, CN=tang/emailAddress=e@qq.com
        Validity
            Not Before: Mar 20 03:00:30 2014 GMT
            Not After : Mar 20 03:00:30 2015 GMT
        Subject: C=ch, ST=ch, L=ch, O=ch, OU=ch, CN=tang/emailAddress=e@qq.com
        Subject Public Key Info:
            Public Key Algorithm: rsaEncryption
                Public-Key: (1024 bit)
                Modulus:
                    00:9e:65:8c:7c:5f:b8:ef:3f:44:de:1d:48:28:02:
                    ae:ac:16:73:d3:18:3c:0f:bc:ef:19:6e:8f:db:4d:
                    1f:33:e4:65:fd:0b:aa:31:00:21:c2:fc:33:82:33:
                    49:da:4f:2e:02:af:4a:8d:db:91:9b:e9:b9:0e:e7:
                    f2:c6:41:02:54:5b:51:53:20:4f:ac:d0:85:df:88:
                    21:52:48:d9:c5:fe:b5:54:40:a2:7e:0d:c7:3d:88:
                    20:01:f3:1f:c5:22:df:8d:50:ff:31:cb:01:f8:8d:
                    4d:a1:7c:5e:2d:d4:29:68:37:4c:56:04:0b:74:17:
                    29:a6:ee:41:73:7e:df:81:73
                Exponent: 65537 (0x10001)
        X509v3 extensions:
            X509v3 Basic Constraints: 
                CA:FALSE
            Netscape Comment: 
                OpenSSL Generated Certificate
            X509v3 Subject Key Identifier: 
                46:49:6B:56:98:76:40:A2:C7:88:E7:55:B3:99:4C:71:0E:51:2C:42
            X509v3 Authority Key Identifier: 
                keyid:24:9D:42:EB:D6:DA:9A:40:4A:F0:13:B2:BE:F6:79:8D:CA:28:DE:A2

    Signature Algorithm: sha1WithRSAEncryption
         1a:96:b4:2e:3f:74:da:d3:ca:d2:0f:79:96:01:af:14:32:45:
         a2:13:ed:53:eb:e5:ed:82:da:ba:37:f4:fb:8e:55:0f:66:bc:
         da:09:c1:1a:4d:b4:31:54:26:85:e4:d8:83:37:f2:8e:74:24:
         fa:dc:44:29:b1:7e:53:d1:17:46:6f:9e:38:a6:43:41:c4:c8:
         c4:a0:27:97:31:1e:b6:5c:b0:d7:a9:3a:cf:76:d4:f5:b7:43:
         bf:01:f0:be:c2:ed:8c:9e:da:18:f2:23:43:f9:d1:36:95:63:
         20:51:95:ba:c6:1a:71:89:76:fe:b0:dd:ea:dc:8e:f8:50:92:
         8e:46:1f:10:30:b1:4e:50:20:ce:cf:19:bb:bb:36:dc:ea:bc:
         7f:91:be:e0:7f:08:b1:43:03:7a:56:f1:8f:dc:b5:e7:33:5c:
         06:b1:f9:2d:2f:90:2b:f6:48:17:4b:8c:dc:30:10:ec:9b:61:
         73:1b:4d:fe:01:af:43:be:6a:d7:dd:4c:ca:80:94:9f:1b:bf:
         24:4d:08:28:87:e9:3e:e9:4f:e7:78:5e:3a:cf:25:1d:19:0f:
         63:63:f8:09:14:17:d0:f7:29:69:aa:0f:3e:7c:7d:4a:00:65:
         56:9f:13:95:5f:a7:d2:11:96:ee:a0:69:e9:a7:b4:ce:d8:89:
         9c:d7:e9:0e
-----BEGIN CERTIFICATE-----
MIIDTDCCAjSgAwIBAgIJANR/+l1ueTDOMA0GCSqGSIb3DQEBBQUAMGkxCzAJBgNV
BAYTAmNoMQswCQYDVQQIDAJjaDELMAkGA1UEBwwCY2gxCzAJBgNVBAoMAmNoMQsw
CQYDVQQLDAJjaDENMAsGA1UEAwwEdGFuZzEXMBUGCSqGSIb3DQEJARYIZUBxcS5j
b20wHhcNMTQwMzIwMDMwMDMwWhcNMTUwMzIwMDMwMDMwWjBpMQswCQYDVQQGEwJj
aDELMAkGA1UECAwCY2gxCzAJBgNVBAcMAmNoMQswCQYDVQQKDAJjaDELMAkGA1UE
CwwCY2gxDTALBgNVBAMMBHRhbmcxFzAVBgkqhkiG9w0BCQEWCGVAcXEuY29tMIGf
MA0GCSqGSIb3DQEBAQUAA4GNADCBiQKBgQCeZYx8X7jvP0TeHUgoAq6sFnPTGDwP
vO8Zbo/bTR8z5GX9C6oxACHC/DOCM0naTy4Cr0qN25Gb6bkO5/LGQQJUW1FTIE+s
0IXfiCFSSNnF/rVUQKJ+Dcc9iCAB8x/FIt+NUP8xywH4jU2hfF4t1CloN0xWBAt0
Fymm7kFzft+BcwIDAQABo3sweTAJBgNVHRMEAjAAMCwGCWCGSAGG+EIBDQQfFh1P
cGVuU1NMIEdlbmVyYXRlZCBDZXJ0aWZpY2F0ZTAdBgNVHQ4EFgQURklrVph2QKLH
iOdVs5lMcQ5RLEIwHwYDVR0jBBgwFoAUJJ1C69bamkBK8BOyvvZ5jcoo3qIwDQYJ
KoZIhvcNAQEFBQADggEBABqWtC4/dNrTytIPeZYBrxQyRaIT7VPr5e2C2ro39PuO
VQ9mvNoJwRpNtDFUJoXk2IM38o50JPrcRCmxflPRF0ZvnjimQ0HEyMSgJ5cxHrZc
sNepOs921PW3Q78B8L7C7Yye2hjyI0P50TaVYyBRlbrGGnGJdv6w3ercjvhQko5G
HxAwsU5QIM7PGbu7NtzqvH+RvuB/CLFDA3pW8Y/cteczXAax+S0vkCv2SBdLjNww
EOybYXMbTf4Br0O+atfdTMqAlJ8bvyRNCCiH6T7pT+d4XjrPJR0ZD2Nj+AkUF9D3
KWmqDz58fUoAZVafE5Vfp9IRlu6gaemntM7YiZzX6Q4=
-----END CERTIFICATE-----
