Certificate:
    Data:
        Version: 3 (0x2)
        Serial Number: 15312232537275314381 (0xd47ffa5d6e7930cd)
    Signature Algorithm: sha1WithRSAEncryption
        Issuer: C=ch, ST=ch, O=ah, OU=ah, CN=tang/emailAddress=e@qq.com
        Validity
            Not Before: Mar 20 02:46:51 2014 GMT
            Not After : Mar 19 02:46:51 2017 GMT
        Subject: C=ch, ST=ch, O=ah, OU=ah, CN=tang/emailAddress=e@qq.com
        Subject Public Key Info:
            Public Key Algorithm: rsaEncryption
                Public-Key: (1024 bit)
                Modulus:
                    00:b8:31:08:ab:e2:95:e4:ff:e2:af:72:27:a4:41:
                    c0:10:e8:60:7d:99:27:c7:4c:2d:21:31:ff:f5:bc:
                    a3:27:73:cd:f0:27:49:53:dd:3f:b8:92:aa:d5:c0:
                    41:0c:d4:f7:a5:36:a0:e0:e9:72:60:68:71:a5:97:
                    50:3a:fa:40:55:17:d9:8f:2e:24:cf:d2:4a:d0:4b:
                    bf:a1:92:67:46:ab:22:7d:20:0c:24:d4:61:91:70:
                    10:cb:3f:91:20:fe:9b:72:7e:02:a0:f5:99:43:96:
                    97:15:12:e0:91:45:7f:42:14:b6:5a:89:3f:14:86:
                    f8:d2:6d:2f:37:03:fe:63:f9
                Exponent: 65537 (0x10001)
        X509v3 extensions:
            X509v3 Subject Key Identifier: 
                14:42:AE:D5:E2:DE:6C:0C:82:82:0B:57:50:87:54:57:AC:C5:43:6D
            X509v3 Authority Key Identifier: 
                keyid:14:42:AE:D5:E2:DE:6C:0C:82:82:0B:57:50:87:54:57:AC:C5:43:6D

            X509v3 Basic Constraints: 
                CA:TRUE
    Signature Algorithm: sha1WithRSAEncryption
         41:56:88:58:10:7b:70:24:fd:c8:80:fe:e7:db:f3:f3:a6:c5:
         63:66:f6:79:a9:d6:f3:bb:77:ea:e8:a6:d1:9e:80:5e:44:41:
         f6:eb:d7:b5:5f:9f:68:be:ae:e4:97:e6:ad:93:a1:cd:40:9e:
         92:0e:a1:09:01:c1:86:f4:72:44:50:93:f6:5a:ba:89:e3:7b:
         ff:f1:77:6f:fd:2f:38:89:f9:51:eb:d0:eb:bd:63:f8:31:59:
         df:a6:40:48:ca:f1:d0:bc:68:e8:17:d9:fd:06:9d:b4:eb:dc:
         72:a2:0d:d7:2d:d6:4c:30:bf:d4:4f:e9:59:3a:bb:2f:b1:d9:
         90:60
-----BEGIN CERTIFICATE-----
MIIChjCCAe+gAwIBAgIJANR/+l1ueTDNMA0GCSqGSIb3DQEBBQUAMFwxCzAJBgNV
BAYTAmNoMQswCQYDVQQIDAJjaDELMAkGA1UECgwCYWgxCzAJBgNVBAsMAmFoMQ0w
CwYDVQQDDAR0YW5nMRcwFQYJKoZIhvcNAQkBFghlQHFxLmNvbTAeFw0xNDAzMjAw
MjQ2NTFaFw0xNzAzMTkwMjQ2NTFaMFwxCzAJBgNVBAYTAmNoMQswCQYDVQQIDAJj
aDELMAkGA1UECgwCYWgxCzAJBgNVBAsMAmFoMQ0wCwYDVQQDDAR0YW5nMRcwFQYJ
KoZIhvcNAQkBFghlQHFxLmNvbTCBnzANBgkqhkiG9w0BAQEFAAOBjQAwgYkCgYEA
uDEIq+KV5P/ir3InpEHAEOhgfZknx0wtITH/9byjJ3PN8CdJU90/uJKq1cBBDNT3
pTag4OlyYGhxpZdQOvpAVRfZjy4kz9JK0Eu/oZJnRqsifSAMJNRhkXAQyz+RIP6b
cn4CoPWZQ5aXFRLgkUV/QhS2Wok/FIb40m0vNwP+Y/kCAwEAAaNQME4wHQYDVR0O
BBYEFBRCrtXi3mwMgoILV1CHVFesxUNtMB8GA1UdIwQYMBaAFBRCrtXi3mwMgoIL
V1CHVFesxUNtMAwGA1UdEwQFMAMBAf8wDQYJKoZIhvcNAQEFBQADgYEAQVaIWBB7
cCT9yID+59vz86bFY2b2eanW87t36uim0Z6AXkRB9uvXtV+faL6u5JfmrZOhzUCe
kg6hCQHBhvRyRFCT9lq6ieN7//F3b/0vOIn5UevQ671j+DFZ36ZASMrx0Lxo6BfZ
/QadtOvccqIN1y3WTDC/1E/pWTq7L7HZkGA=
-----END CERTIFICATE-----
